; Function Attrs: nounwind uwtable
define internal range(i32 -1, 1) i32 @H5G__loc_info_cb(ptr readnone captures(none) %0, ptr readnone captures(none) %1, ptr readnone captures(none) %2, ptr noundef readonly captures(address_is_null) %3, ptr noundef readonly captures(none) %4, ptr noundef writeonly captures(none) %5) #0 {
  %7 = load i8, ptr @H5G_init_g, align 1, !tbaa !3, !range !7, !noundef !8
  %8 = trunc nuw i8 %7 to i1
  %9 = load i8, ptr @H5_libterm_g, align 1, !range !7
  %10 = trunc nuw i8 %9 to i1
  %11 = xor i1 %10, true
  %12 = select i1 %8, i1 true, i1 %11
  br i1 %12, label %13, label %31, !prof !9

13:                                               ; preds = %6
  %14 = icmp eq ptr %3, null
  br i1 %14, label %15, label %19

15:                                               ; preds = %13
  %16 = load i64, ptr @H5E_SYM_g, align 8, !tbaa !10
  %17 = load i64, ptr @H5E_NOTFOUND_g, align 8, !tbaa !10
  %18 = tail call i32 (ptr, ptr, i32, i64, i64, ptr, ...) @H5E_printf_stack(ptr noundef nonnull @.str, ptr noundef nonnull @__func__.H5G__loc_info_cb, i32 noundef 712, i64 noundef %16, i64 noundef %17, ptr noundef nonnull @.str.39) #9
  br label %30

19:                                               ; preds = %13
  %20 = load ptr, ptr %3, align 8, !tbaa !12
  %21 = getelementptr inbounds nuw i8, ptr %4, i64 8
  %22 = load ptr, ptr %21, align 8, !tbaa !42
  %23 = load i32, ptr %4, align 8, !tbaa !39
  %24 = tail call i32 @H5O_get_info(ptr noundef %20, ptr noundef %22, i32 noundef %23) #9
  %25 = icmp slt i32 %24, 0
  br i1 %25, label %26, label %30

26:                                               ; preds = %19
  %27 = load i64, ptr @H5E_SYM_g, align 8, !tbaa !10
  %28 = load i64, ptr @H5E_CANTGET_g, align 8, !tbaa !10
  %29 = tail call i32 (ptr, ptr, i32, i64, i64, ptr, ...) @H5E_printf_stack(ptr noundef nonnull @.str, ptr noundef nonnull @__func__.H5G__loc_info_cb, i32 noundef 716, i64 noundef %27, i64 noundef %28, ptr noundef nonnull @.str.40) #9
  br label %30

30:                                               ; preds = %19, %26, %15
  %.1 = phi i32 [ -1, %15 ], [ -1, %26 ], [ 0, %19 ]
  store i32 0, ptr %5, align 4, !tbaa !22
  br label %31

31:                                               ; preds = %30, %6
  %.0 = phi i32 [ %.1, %30 ], [ 0, %6 ]
  ret i32 %.0
}